ARM GAS  C:\Users\ar4ik\AppData\Local\Temp\cc9mdGMS.s 			page 1


   1              		.syntax unified
   2              		.cpu cortex-m0
   3              		.fpu softvfp
   4              		.eabi_attribute 20, 1
   5              		.eabi_attribute 21, 1
   6              		.eabi_attribute 23, 3
   7              		.eabi_attribute 24, 1
   8              		.eabi_attribute 25, 1
   9              		.eabi_attribute 26, 1
  10              		.eabi_attribute 30, 1
  11              		.eabi_attribute 34, 0
  12              		.eabi_attribute 18, 4
  13              		.thumb
  14              		.syntax unified
  15              		.file	"main.c"
  16              		.text
  17              	.Ltext0:
  18              		.cfi_sections	.debug_frame
  19              		.section	.text.matrixInit,"ax",%progbits
  20              		.align	2
  21              		.code	16
  22              		.thumb_func
  23              		.type	matrixInit, %function
  24              	matrixInit:
  25              	.LFB34:
  26              		.file 1 "main.c"
   1:main.c        **** #include "project.h"
   2:main.c        **** 
   3:main.c        **** // –ú–∞—Å–∏–≤ –º–∞—Å–æ–∫ –¥–ª—è 7-—Å–µ–≥–º–µ–Ω—Ç–Ω–æ–≥–æ —ñ–Ω–¥–∏–∫–∞—Ç–æ—Ä–∞ (–°–ø—ñ–ª—å–Ω–∏–π –∞–
   4:main.c        **** static uint8_t LED_NUM[] = {
   5:main.c        ****     0xC0, // 0
   6:main.c        ****     0xF9, // 1 (–≤–∏–ø—Ä–∞–≤–∏–≤ –Ω–∞ —Å—Ç–∞–Ω–¥–∞—Ä—Ç–Ω–µ –∑–Ω–∞—á–µ–Ω–Ω—è –¥–ª—è 1)
   7:main.c        ****     0xA4, // 2
   8:main.c        ****     0xB0, // 3
   9:main.c        ****     0x99, // 4
  10:main.c        ****     0x92, // 5
  11:main.c        ****     0x82, // 6
  12:main.c        ****     0xF8, // 7
  13:main.c        ****     0x80, // 8
  14:main.c        ****     0x90, // 9
  15:main.c        ****     0x88, // A (–¥–ª—è –∫–Ω–æ–ø–∫–∏ *)
  16:main.c        ****     0x83  // b (–¥–ª—è –∫–Ω–æ–ø–∫–∏ #)
  17:main.c        **** };
  18:main.c        **** 
  19:main.c        **** // –ë–∞–∑–æ–≤–∞ —Ñ—É–Ω–∫—Ü—ñ—è –¥–ª—è –Ω–∞–¥—Å–∏–ª–∞–Ω–Ω—è 8 –±—ñ—Ç —É –∑—Å—É–≤–Ω–∏–π —Ä–µ–≥—ñ—Å—Ç—
  20:main.c        **** static void FourDigit74HC595_sendData(uint8_t data) {
  21:main.c        ****     for(int8_t i = 0; i < 8; i++) {
  22:main.c        ****         if (data & (0x80 >> i)) {
  23:main.c        ****             Pin_DO_Write(1);  
  24:main.c        ****         } else {
  25:main.c        ****             Pin_DO_Write(0);  
  26:main.c        ****         }
  27:main.c        ****         // –¢–∞–∫—Ç–æ–≤–∏–π —ñ–º–ø—É–ª—å—Å
  28:main.c        ****         Pin_CLK_Write(1);  
  29:main.c        ****         Pin_CLK_Write(0);  
  30:main.c        ****     }
  31:main.c        **** }
ARM GAS  C:\Users\ar4ik\AppData\Local\Temp\cc9mdGMS.s 			page 2


  32:main.c        **** 
  33:main.c        **** // –§—É–Ω–∫—Ü—ñ—è –Ω–∞–¥—Å–∏–ª–∞–Ω–Ω—è –¥–∞–Ω–∏—Ö –Ω–∞ 2-–∫–∞—Å–∫–∞–¥–Ω–∏–π –∑—Å—É–≤–Ω–∏–π —Ä–µ–≥—ñ
  34:main.c        **** static void FourDigit74HC595_sendOneDigit(uint8_t pos, uint8_t digit, uint8_t dot) {
  35:main.c        ****     // 1. –°–ø–æ—á–∞—Ç–∫—É –≤—ñ–¥–ø—Ä–∞–≤–ª—è—î–º–æ –∫–æ–¥ –ø–æ–∑–∏—Ü—ñ—ó (–≤–∏–±—ñ—Ä —Ä–æ–∑—Ä—è–¥—
  36:main.c        ****     FourDigit74HC595_sendData(0xFF & ~(1 << pos));
  37:main.c        **** 
  38:main.c        ****     // 2. –ü–æ—Ç—ñ–º –≤—ñ–¥–ø—Ä–∞–≤–ª—è—î–º–æ —Å–∞–º—É —Ü–∏—Ñ—Ä—É (–º–∞–ª—é–Ω–æ–∫ —Å–µ–≥–º–µ–Ω—Ç—ñ–
  39:main.c        ****     if (dot) {
  40:main.c        ****         FourDigit74HC595_sendData(LED_NUM[digit] & 0x7F); // –í–º–∏–∫–∞—î–º–æ –∫—Ä–∞–ø–∫—É
  41:main.c        ****     } else {
  42:main.c        ****         FourDigit74HC595_sendData(LED_NUM[digit]); 
  43:main.c        ****     }
  44:main.c        **** 
  45:main.c        ****     // 3. –ó–∞—â—ñ–ø—É—î–º–æ –¥–∞–Ω—ñ (Latch)
  46:main.c        ****     Pin_Latch_Write(1);
  47:main.c        ****     Pin_Latch_Write(0);
  48:main.c        **** }
  49:main.c        **** 
  50:main.c        **** // --- –ú–∞—Å–∏–≤–∏ –≤–∫–∞–∑—ñ–≤–Ω–∏–∫—ñ–≤ –ü–Ü–î –¢–í–û–á –ü–Ü–ù–ò (C_1..C_3, R_1..R_4) ---
  51:main.c        **** static void (*COLx_SetDriveMode[3])(uint8_t mode) = { C_1_SetDriveMode, C_2_SetDriveMode, C_3_SetDr
  52:main.c        **** static void (*COLx_Write[3])(uint8_t value) = { C_1_Write, C_2_Write, C_3_Write };
  53:main.c        **** static uint8 (*ROWx_Read[4])(void) = { R_1_Read, R_2_Read, R_3_Read, R_4_Read };
  54:main.c        **** 
  55:main.c        **** static uint8_t keys[4][3];
  56:main.c        **** 
  57:main.c        **** // –õ–æ–≥—ñ—á–Ω–∞ –º–∞–ø–∞ —Ç–≤–æ—î—ó –∫–ª–∞–≤—ñ–∞—Ç—É—Ä–∏
  58:main.c        **** static uint8_t keys_act[4][3] = {
  59:main.c        ****     { 1, 2, 3 },
  60:main.c        ****     { 4, 5, 6 },
  61:main.c        ****     { 7, 8, 9 },
  62:main.c        ****     { 10, 0, 11 } // 10 = '*', 11 = '#'
  63:main.c        **** };
  64:main.c        **** 
  65:main.c        **** static void matrixInit() {
  27              		.loc 1 65 0
  28              		.cfi_startproc
  29              		@ args = 0, pretend = 0, frame = 0
  30              		@ frame_needed = 0, uses_anonymous_args = 0
  31 0000 10B5     		push	{r4, lr}
  32              		.cfi_def_cfa_offset 8
  33              		.cfi_offset 4, -8
  34              		.cfi_offset 14, -4
  35              	.LVL0:
  36              	.LBB2:
  66:main.c        ****     for (int i = 0; i < 3; i++) {
  37              		.loc 1 66 0
  38 0002 0024     		movs	r4, #0
  39 0004 05E0     		b	.L2
  40              	.LVL1:
  41              	.L3:
  67:main.c        ****         COLx_SetDriveMode[i](C_1_DM_DIG_HIZ); 
  42              		.loc 1 67 0 discriminator 3
  43 0006 A200     		lsls	r2, r4, #2
  44 0008 034B     		ldr	r3, .L4
  45 000a D358     		ldr	r3, [r2, r3]
  46 000c 0120     		movs	r0, #1
  47 000e 9847     		blx	r3
ARM GAS  C:\Users\ar4ik\AppData\Local\Temp\cc9mdGMS.s 			page 3


  48              	.LVL2:
  66:main.c        ****     for (int i = 0; i < 3; i++) {
  49              		.loc 1 66 0 discriminator 3
  50 0010 0134     		adds	r4, r4, #1
  51              	.LVL3:
  52              	.L2:
  66:main.c        ****     for (int i = 0; i < 3; i++) {
  53              		.loc 1 66 0 is_stmt 0 discriminator 1
  54 0012 022C     		cmp	r4, #2
  55 0014 F7DD     		ble	.L3
  56              	.LBE2:
  68:main.c        ****     }
  69:main.c        **** }
  57              		.loc 1 69 0 is_stmt 1
  58              		@ sp needed
  59              	.LVL4:
  60 0016 10BD     		pop	{r4, pc}
  61              	.L5:
  62              		.align	2
  63              	.L4:
  64 0018 00000000 		.word	.LANCHOR0
  65              		.cfi_endproc
  66              	.LFE34:
  67              		.size	matrixInit, .-matrixInit
  68              		.section	.text.readMatrix,"ax",%progbits
  69              		.align	2
  70              		.code	16
  71              		.thumb_func
  72              		.type	readMatrix, %function
  73              	readMatrix:
  74              	.LFB35:
  70:main.c        **** 
  71:main.c        **** static void readMatrix() {
  75              		.loc 1 71 0
  76              		.cfi_startproc
  77              		@ args = 0, pretend = 0, frame = 0
  78              		@ frame_needed = 0, uses_anonymous_args = 0
  79 0000 70B5     		push	{r4, r5, r6, lr}
  80              		.cfi_def_cfa_offset 16
  81              		.cfi_offset 4, -16
  82              		.cfi_offset 5, -12
  83              		.cfi_offset 6, -8
  84              		.cfi_offset 14, -4
  85              	.LVL5:
  86              	.LBB3:
  72:main.c        ****     uint8_t row_count = 4;
  73:main.c        ****     uint8_t col_count = 3;
  74:main.c        **** 
  75:main.c        ****     for (int col_index=0; col_index < col_count; col_index++) {
  87              		.loc 1 75 0
  88 0002 0025     		movs	r5, #0
  89 0004 1DE0     		b	.L7
  90              	.LVL6:
  91              	.L10:
  76:main.c        ****         COLx_SetDriveMode[col_index](C_1_DM_STRONG);
  92              		.loc 1 76 0
  93 0006 104E     		ldr	r6, .L11
ARM GAS  C:\Users\ar4ik\AppData\Local\Temp\cc9mdGMS.s 			page 4


  94 0008 AC00     		lsls	r4, r5, #2
  95 000a 0620     		movs	r0, #6
  96 000c A359     		ldr	r3, [r4, r6]
  97 000e 9847     		blx	r3
  98              	.LVL7:
  77:main.c        ****         COLx_Write[col_index](0);
  99              		.loc 1 77 0
 100 0010 3419     		adds	r4, r6, r4
 101 0012 E368     		ldr	r3, [r4, #12]
 102 0014 0020     		movs	r0, #0
 103 0016 9847     		blx	r3
 104              	.LVL8:
 105              	.LBB4:
  78:main.c        **** 
  79:main.c        ****         for (int row_index=0; row_index < row_count; row_index++) {
 106              		.loc 1 79 0
 107 0018 0024     		movs	r4, #0
 108 001a 0AE0     		b	.L8
 109              	.LVL9:
 110              	.L9:
  80:main.c        ****             keys[row_index][col_index] = ROWx_Read[row_index]();
 111              		.loc 1 80 0 discriminator 3
 112 001c A300     		lsls	r3, r4, #2
 113 001e 0A4A     		ldr	r2, .L11
 114 0020 D318     		adds	r3, r2, r3
 115 0022 9B69     		ldr	r3, [r3, #24]
 116 0024 9847     		blx	r3
 117              	.LVL10:
 118 0026 6300     		lsls	r3, r4, #1
 119 0028 1B19     		adds	r3, r3, r4
 120 002a 084A     		ldr	r2, .L11+4
 121 002c D318     		adds	r3, r2, r3
 122 002e 5855     		strb	r0, [r3, r5]
  79:main.c        ****             keys[row_index][col_index] = ROWx_Read[row_index]();
 123              		.loc 1 79 0 discriminator 3
 124 0030 0134     		adds	r4, r4, #1
 125              	.LVL11:
 126              	.L8:
  79:main.c        ****             keys[row_index][col_index] = ROWx_Read[row_index]();
 127              		.loc 1 79 0 is_stmt 0 discriminator 1
 128 0032 032C     		cmp	r4, #3
 129 0034 F2DD     		ble	.L9
 130              	.LBE4:
  81:main.c        ****         }
  82:main.c        ****         
  83:main.c        ****         COLx_SetDriveMode[col_index](C_1_DM_DIG_HIZ);
 131              		.loc 1 83 0 is_stmt 1 discriminator 2
 132 0036 AA00     		lsls	r2, r5, #2
 133 0038 034B     		ldr	r3, .L11
 134 003a D358     		ldr	r3, [r2, r3]
 135 003c 0120     		movs	r0, #1
 136 003e 9847     		blx	r3
 137              	.LVL12:
  75:main.c        ****         COLx_SetDriveMode[col_index](C_1_DM_STRONG);
 138              		.loc 1 75 0 discriminator 2
 139 0040 0135     		adds	r5, r5, #1
 140              	.LVL13:
ARM GAS  C:\Users\ar4ik\AppData\Local\Temp\cc9mdGMS.s 			page 5


 141              	.L7:
  75:main.c        ****         COLx_SetDriveMode[col_index](C_1_DM_STRONG);
 142              		.loc 1 75 0 is_stmt 0 discriminator 1
 143 0042 022D     		cmp	r5, #2
 144 0044 DFDD     		ble	.L10
 145              	.LBE3:
  84:main.c        ****     }
  85:main.c        **** }  
 146              		.loc 1 85 0 is_stmt 1
 147              		@ sp needed
 148              	.LVL14:
 149 0046 70BD     		pop	{r4, r5, r6, pc}
 150              	.L12:
 151              		.align	2
 152              	.L11:
 153 0048 00000000 		.word	.LANCHOR0
 154 004c 00000000 		.word	.LANCHOR1
 155              		.cfi_endproc
 156              	.LFE35:
 157              		.size	readMatrix, .-readMatrix
 158              		.section	.text.FourDigit74HC595_sendData,"ax",%progbits
 159              		.align	2
 160              		.code	16
 161              		.thumb_func
 162              		.type	FourDigit74HC595_sendData, %function
 163              	FourDigit74HC595_sendData:
 164              	.LFB32:
  20:main.c        ****     for(int8_t i = 0; i < 8; i++) {
 165              		.loc 1 20 0
 166              		.cfi_startproc
 167              		@ args = 0, pretend = 0, frame = 0
 168              		@ frame_needed = 0, uses_anonymous_args = 0
 169              	.LVL15:
 170 0000 70B5     		push	{r4, r5, r6, lr}
 171              		.cfi_def_cfa_offset 16
 172              		.cfi_offset 4, -16
 173              		.cfi_offset 5, -12
 174              		.cfi_offset 6, -8
 175              		.cfi_offset 14, -4
 176 0002 0500     		movs	r5, r0
 177              	.LVL16:
 178              	.LBB5:
  21:main.c        ****         if (data & (0x80 >> i)) {
 179              		.loc 1 21 0
 180 0004 0024     		movs	r4, #0
 181 0006 12E0     		b	.L14
 182              	.LVL17:
 183              	.L17:
  22:main.c        ****             Pin_DO_Write(1);  
 184              		.loc 1 22 0
 185 0008 8023     		movs	r3, #128
 186 000a 2341     		asrs	r3, r3, r4
 187 000c 2B42     		tst	r3, r5
 188 000e 03D0     		beq	.L15
  23:main.c        ****         } else {
 189              		.loc 1 23 0
 190 0010 0120     		movs	r0, #1
ARM GAS  C:\Users\ar4ik\AppData\Local\Temp\cc9mdGMS.s 			page 6


 191 0012 FFF7FEFF 		bl	Pin_DO_Write
 192              	.LVL18:
 193 0016 02E0     		b	.L16
 194              	.L15:
  25:main.c        ****         }
 195              		.loc 1 25 0
 196 0018 0020     		movs	r0, #0
 197 001a FFF7FEFF 		bl	Pin_DO_Write
 198              	.LVL19:
 199              	.L16:
  28:main.c        ****         Pin_CLK_Write(0);  
 200              		.loc 1 28 0 discriminator 2
 201 001e 0120     		movs	r0, #1
 202 0020 FFF7FEFF 		bl	Pin_CLK_Write
 203              	.LVL20:
  29:main.c        ****     }
 204              		.loc 1 29 0 discriminator 2
 205 0024 0020     		movs	r0, #0
 206 0026 FFF7FEFF 		bl	Pin_CLK_Write
 207              	.LVL21:
  21:main.c        ****         if (data & (0x80 >> i)) {
 208              		.loc 1 21 0 discriminator 2
 209 002a 0134     		adds	r4, r4, #1
 210              	.LVL22:
 211 002c 64B2     		sxtb	r4, r4
 212              	.LVL23:
 213              	.L14:
  21:main.c        ****         if (data & (0x80 >> i)) {
 214              		.loc 1 21 0 is_stmt 0 discriminator 1
 215 002e 072C     		cmp	r4, #7
 216 0030 EADD     		ble	.L17
 217              	.LBE5:
  31:main.c        **** 
 218              		.loc 1 31 0 is_stmt 1
 219              		@ sp needed
 220              	.LVL24:
 221 0032 70BD     		pop	{r4, r5, r6, pc}
 222              		.cfi_endproc
 223              	.LFE32:
 224              		.size	FourDigit74HC595_sendData, .-FourDigit74HC595_sendData
 225              		.section	.text.FourDigit74HC595_sendOneDigit,"ax",%progbits
 226              		.align	2
 227              		.code	16
 228              		.thumb_func
 229              		.type	FourDigit74HC595_sendOneDigit, %function
 230              	FourDigit74HC595_sendOneDigit:
 231              	.LFB33:
  34:main.c        ****     // 1. –°–ø–æ—á–∞—Ç–∫—É –≤—ñ–¥–ø—Ä–∞–≤–ª—è—î–º–æ –∫–æ–¥ –ø–æ–∑–∏—Ü—ñ—ó (–≤–∏–±—ñ—Ä —Ä–æ–∑—Ä—è–¥—
 232              		.loc 1 34 0
 233              		.cfi_startproc
 234              		@ args = 0, pretend = 0, frame = 0
 235              		@ frame_needed = 0, uses_anonymous_args = 0
 236              	.LVL25:
 237 0000 70B5     		push	{r4, r5, r6, lr}
 238              		.cfi_def_cfa_offset 16
 239              		.cfi_offset 4, -16
 240              		.cfi_offset 5, -12
ARM GAS  C:\Users\ar4ik\AppData\Local\Temp\cc9mdGMS.s 			page 7


 241              		.cfi_offset 6, -8
 242              		.cfi_offset 14, -4
 243 0002 0300     		movs	r3, r0
 244 0004 0C00     		movs	r4, r1
 245 0006 1500     		movs	r5, r2
  36:main.c        **** 
 246              		.loc 1 36 0
 247 0008 0120     		movs	r0, #1
 248              	.LVL26:
 249 000a 9840     		lsls	r0, r0, r3
 250 000c C043     		mvns	r0, r0
 251 000e C0B2     		uxtb	r0, r0
 252 0010 FFF7FEFF 		bl	FourDigit74HC595_sendData
 253              	.LVL27:
  39:main.c        ****         FourDigit74HC595_sendData(LED_NUM[digit] & 0x7F); // –í–º–∏–∫–∞—î–º–æ –∫—Ä–∞–ø–∫—É
 254              		.loc 1 39 0
 255 0014 002D     		cmp	r5, #0
 256 0016 08D0     		beq	.L19
  40:main.c        ****     } else {
 257              		.loc 1 40 0
 258 0018 0A4B     		ldr	r3, .L21
 259 001a 1C19     		adds	r4, r3, r4
 260 001c 2823     		movs	r3, #40
 261 001e E35C     		ldrb	r3, [r4, r3]
 262 0020 7F20     		movs	r0, #127
 263 0022 1840     		ands	r0, r3
 264 0024 FFF7FEFF 		bl	FourDigit74HC595_sendData
 265              	.LVL28:
 266 0028 05E0     		b	.L20
 267              	.L19:
  42:main.c        ****     }
 268              		.loc 1 42 0
 269 002a 064B     		ldr	r3, .L21
 270 002c 1C19     		adds	r4, r3, r4
 271 002e 2823     		movs	r3, #40
 272 0030 E05C     		ldrb	r0, [r4, r3]
 273 0032 FFF7FEFF 		bl	FourDigit74HC595_sendData
 274              	.LVL29:
 275              	.L20:
  46:main.c        ****     Pin_Latch_Write(0);
 276              		.loc 1 46 0
 277 0036 0120     		movs	r0, #1
 278 0038 FFF7FEFF 		bl	Pin_Latch_Write
 279              	.LVL30:
  47:main.c        **** }
 280              		.loc 1 47 0
 281 003c 0020     		movs	r0, #0
 282 003e FFF7FEFF 		bl	Pin_Latch_Write
 283              	.LVL31:
  48:main.c        **** 
 284              		.loc 1 48 0
 285              		@ sp needed
 286 0042 70BD     		pop	{r4, r5, r6, pc}
 287              	.L22:
 288              		.align	2
 289              	.L21:
 290 0044 00000000 		.word	.LANCHOR0
ARM GAS  C:\Users\ar4ik\AppData\Local\Temp\cc9mdGMS.s 			page 8


 291              		.cfi_endproc
 292              	.LFE33:
 293              		.size	FourDigit74HC595_sendOneDigit, .-FourDigit74HC595_sendOneDigit
 294              		.section	.text.main,"ax",%progbits
 295              		.align	2
 296              		.global	main
 297              		.code	16
 298              		.thumb_func
 299              		.type	main, %function
 300              	main:
 301              	.LFB36:
  86:main.c        **** 
  87:main.c        **** int main(void) {
 302              		.loc 1 87 0
 303              		.cfi_startproc
 304              		@ args = 0, pretend = 0, frame = 0
 305              		@ frame_needed = 0, uses_anonymous_args = 0
 306 0000 70B5     		push	{r4, r5, r6, lr}
 307              		.cfi_def_cfa_offset 16
 308              		.cfi_offset 4, -16
 309              		.cfi_offset 5, -12
 310              		.cfi_offset 6, -8
 311              		.cfi_offset 14, -4
  88:main.c        ****     CyGlobalIntEnable; 
 312              		.loc 1 88 0
 313              		.syntax divided
 314              	@ 88 "main.c" 1
 315 0002 62B6     		CPSIE   i
 316              	@ 0 "" 2
  89:main.c        ****     
  90:main.c        ****     // –ó–∞–ø—É—Å–∫–∞—î–º–æ UART –¥–ª—è –¥–µ–±–∞–≥—É
  91:main.c        ****     SW_Tx_UART_Start();
 317              		.loc 1 91 0
 318              		.thumb
 319              		.syntax unified
 320 0004 FFF7FEFF 		bl	SW_Tx_UART_Start
 321              	.LVL32:
  92:main.c        ****     SW_Tx_UART_PutString("Lab 4 Started\r\n");
 322              		.loc 1 92 0
 323 0008 1848     		ldr	r0, .L30
 324 000a FFF7FEFF 		bl	SW_Tx_UART_PutString
 325              	.LVL33:
  93:main.c        **** 
  94:main.c        ****     matrixInit();
 326              		.loc 1 94 0
 327 000e FFF7FEFF 		bl	matrixInit
 328              	.LVL34:
  95:main.c        ****     
  96:main.c        ****     // –û—á–∏—â–∞—î–º–æ —ñ–Ω–¥–∏–∫–∞—Ç–æ—Ä
  97:main.c        ****     FourDigit74HC595_sendOneDigit(0, 0, 0); 
 329              		.loc 1 97 0
 330 0012 0022     		movs	r2, #0
 331 0014 0021     		movs	r1, #0
 332 0016 0020     		movs	r0, #0
 333 0018 FFF7FEFF 		bl	FourDigit74HC595_sendOneDigit
 334              	.LVL35:
 335              	.L28:
ARM GAS  C:\Users\ar4ik\AppData\Local\Temp\cc9mdGMS.s 			page 9


  98:main.c        ****     
  99:main.c        ****     for (;;) {
 100:main.c        ****         readMatrix();
 336              		.loc 1 100 0
 337 001c FFF7FEFF 		bl	readMatrix
 338              	.LVL36:
 339              	.LBB6:
 101:main.c        **** 
 102:main.c        ****         for (int row = 0; row < 4; row++) {
 340              		.loc 1 102 0
 341 0020 0025     		movs	r5, #0
 342 0022 1CE0     		b	.L24
 343              	.LVL37:
 344              	.L26:
 345              	.LBB7:
 103:main.c        ****             for (int col = 0; col < 3; col++) {
 104:main.c        ****                 if (keys[row][col] == 0) // –Ø–∫—â–æ –∫–Ω–æ–ø–∫–∞ –Ω–∞—Ç–∏—Å–Ω—É—Ç–∞ (Active Low)
 346              		.loc 1 104 0
 347 0024 6B00     		lsls	r3, r5, #1
 348 0026 5B19     		adds	r3, r3, r5
 349 0028 114A     		ldr	r2, .L30+4
 350 002a D318     		adds	r3, r2, r3
 351 002c 1B5D     		ldrb	r3, [r3, r4]
 352 002e 002B     		cmp	r3, #0
 353 0030 0FD1     		bne	.L25
 354              	.LBB8:
 105:main.c        ****                 {
 106:main.c        ****                     uint8_t button_number = keys_act[row][col]; 
 355              		.loc 1 106 0
 356 0032 6B00     		lsls	r3, r5, #1
 357 0034 5B19     		adds	r3, r3, r5
 358 0036 0F4A     		ldr	r2, .L30+8
 359 0038 D318     		adds	r3, r2, r3
 360 003a 1B19     		adds	r3, r3, r4
 361 003c 3422     		movs	r2, #52
 362 003e 995C     		ldrb	r1, [r3, r2]
 363              	.LVL38:
 107:main.c        ****                     
 108:main.c        ****                     if (button_number < 12) { 
 364              		.loc 1 108 0
 365 0040 0B29     		cmp	r1, #11
 366 0042 06D8     		bhi	.L25
 109:main.c        ****                         // –í–∏–≤–æ–¥–∏–º–æ —Ü–∏—Ñ—Ä—É –Ω–∞ 0-–π (–∫—Ä–∞–π–Ω—ñ–π –ø—Ä–∞–≤–∏–π) —Ä–æ
 110:main.c        ****                         FourDigit74HC595_sendOneDigit(0, button_number, 0); 
 367              		.loc 1 110 0
 368 0044 0022     		movs	r2, #0
 369 0046 0020     		movs	r0, #0
 370 0048 FFF7FEFF 		bl	FourDigit74HC595_sendOneDigit
 371              	.LVL39:
 111:main.c        ****                         SW_Tx_UART_PutString("Key Pressed\r\n");
 372              		.loc 1 111 0
 373 004c 0A48     		ldr	r0, .L30+12
 374 004e FFF7FEFF 		bl	SW_Tx_UART_PutString
 375              	.LVL40:
 376              	.L25:
 377              	.LBE8:
 103:main.c        ****                 if (keys[row][col] == 0) // –Ø–∫—â–æ –∫–Ω–æ–ø–∫–∞ –Ω–∞—Ç–∏—Å–Ω—É—Ç–∞ (Active Low)
ARM GAS  C:\Users\ar4ik\AppData\Local\Temp\cc9mdGMS.s 			page 10


 378              		.loc 1 103 0 discriminator 2
 379 0052 0134     		adds	r4, r4, #1
 380              	.LVL41:
 381 0054 00E0     		b	.L27
 382              	.LVL42:
 383              	.L29:
 384              	.LBE7:
 385 0056 0024     		movs	r4, #0
 386              	.L27:
 387              	.LVL43:
 388              	.LBB9:
 103:main.c        ****                 if (keys[row][col] == 0) // –Ø–∫—â–æ –∫–Ω–æ–ø–∫–∞ –Ω–∞—Ç–∏—Å–Ω—É—Ç–∞ (Active Low)
 389              		.loc 1 103 0 is_stmt 0 discriminator 1
 390 0058 022C     		cmp	r4, #2
 391 005a E3DD     		ble	.L26
 392              	.LBE9:
 102:main.c        ****             for (int col = 0; col < 3; col++) {
 393              		.loc 1 102 0 is_stmt 1 discriminator 2
 394 005c 0135     		adds	r5, r5, #1
 395              	.LVL44:
 396              	.L24:
 102:main.c        ****             for (int col = 0; col < 3; col++) {
 397              		.loc 1 102 0 is_stmt 0 discriminator 1
 398 005e 032D     		cmp	r5, #3
 399 0060 F9DD     		ble	.L29
 400              	.LBE6:
 112:main.c        ****                     }
 113:main.c        ****                 }
 114:main.c        ****             }
 115:main.c        ****         }
 116:main.c        ****         CyDelay(50); // –ù–µ–≤–µ–ª–∏–∫–∏–π –∞–Ω—Ç–∏–¥—Ä–µ–±—ñ–∑–≥
 401              		.loc 1 116 0 is_stmt 1
 402 0062 3220     		movs	r0, #50
 403 0064 FFF7FEFF 		bl	CyDelay
 404              	.LVL45:
 117:main.c        ****     }
 405              		.loc 1 117 0
 406 0068 D8E7     		b	.L28
 407              	.L31:
 408 006a C046     		.align	2
 409              	.L30:
 410 006c 00000000 		.word	.LC4
 411 0070 00000000 		.word	.LANCHOR1
 412 0074 00000000 		.word	.LANCHOR0
 413 0078 10000000 		.word	.LC8
 414              		.cfi_endproc
 415              	.LFE36:
 416              		.size	main, .-main
 417              		.section	.rodata
 418              		.align	2
 419              		.set	.LANCHOR0,. + 0
 420              		.type	COLx_SetDriveMode, %object
 421              		.size	COLx_SetDriveMode, 12
 422              	COLx_SetDriveMode:
 423 0000 00000000 		.word	C_1_SetDriveMode
 424 0004 00000000 		.word	C_2_SetDriveMode
 425 0008 00000000 		.word	C_3_SetDriveMode
ARM GAS  C:\Users\ar4ik\AppData\Local\Temp\cc9mdGMS.s 			page 11


 426              		.type	COLx_Write, %object
 427              		.size	COLx_Write, 12
 428              	COLx_Write:
 429 000c 00000000 		.word	C_1_Write
 430 0010 00000000 		.word	C_2_Write
 431 0014 00000000 		.word	C_3_Write
 432              		.type	ROWx_Read, %object
 433              		.size	ROWx_Read, 16
 434              	ROWx_Read:
 435 0018 00000000 		.word	R_1_Read
 436 001c 00000000 		.word	R_2_Read
 437 0020 00000000 		.word	R_3_Read
 438 0024 00000000 		.word	R_4_Read
 439              		.type	LED_NUM, %object
 440              		.size	LED_NUM, 12
 441              	LED_NUM:
 442 0028 C0       		.byte	-64
 443 0029 F9       		.byte	-7
 444 002a A4       		.byte	-92
 445 002b B0       		.byte	-80
 446 002c 99       		.byte	-103
 447 002d 92       		.byte	-110
 448 002e 82       		.byte	-126
 449 002f F8       		.byte	-8
 450 0030 80       		.byte	-128
 451 0031 90       		.byte	-112
 452 0032 88       		.byte	-120
 453 0033 83       		.byte	-125
 454              		.type	keys_act, %object
 455              		.size	keys_act, 12
 456              	keys_act:
 457 0034 01       		.byte	1
 458 0035 02       		.byte	2
 459 0036 03       		.byte	3
 460 0037 04       		.byte	4
 461 0038 05       		.byte	5
 462 0039 06       		.byte	6
 463 003a 07       		.byte	7
 464 003b 08       		.byte	8
 465 003c 09       		.byte	9
 466 003d 0A       		.byte	10
 467 003e 00       		.byte	0
 468 003f 0B       		.byte	11
 469              		.section	.rodata.str1.4,"aMS",%progbits,1
 470              		.align	2
 471              	.LC4:
 472 0000 4C616220 		.ascii	"Lab 4 Started\015\012\000"
 472      34205374 
 472      61727465 
 472      640D0A00 
 473              	.LC8:
 474 0010 4B657920 		.ascii	"Key Pressed\015\012\000"
 474      50726573 
 474      7365640D 
 474      0A00
 475              		.bss
 476              		.align	2
ARM GAS  C:\Users\ar4ik\AppData\Local\Temp\cc9mdGMS.s 			page 12


 477              		.set	.LANCHOR1,. + 0
 478              		.type	keys, %object
 479              		.size	keys, 12
 480              	keys:
 481 0000 00000000 		.space	12
 481      00000000 
 481      00000000 
 482              		.text
 483              	.Letext0:
 484              		.file 2 "c:\\program files (x86)\\cypress\\psoc creator\\4.4\\psoc creator\\import\\gnu\\arm\\5.4.
 485              		.file 3 "c:\\program files (x86)\\cypress\\psoc creator\\4.4\\psoc creator\\import\\gnu\\arm\\5.4.
 486              		.file 4 "Generated_Source\\PSoC4/cytypes.h"
 487              		.file 5 "Generated_Source\\PSoC4/Pin_DO.h"
 488              		.file 6 "Generated_Source\\PSoC4/Pin_CLK.h"
 489              		.file 7 "Generated_Source\\PSoC4/Pin_Latch.h"
 490              		.file 8 "Generated_Source\\PSoC4/SW_Tx_UART.h"
 491              		.file 9 "Generated_Source\\PSoC4/CyLib.h"